target datalayout = "e-m:e-p270:32:32-p271:32:32-p272:64:64-i64:64-i128:128-f80:128-n8:16:32:64-S128"
target triple = "x86_64-pc-linux-gnu"

; Function Attrs: nounwind uwtable
define i32 @dt_datetime_unix_to_exif(ptr noundef %0, i64 noundef %1, ptr noundef %2) #0 {
  %4 = alloca i32, align 4
  %5 = alloca ptr, align 8
  %6 = alloca i64, align 8
  %7 = alloca ptr, align 8
  %8 = alloca ptr, align 8
  %9 = alloca i32, align 4
  %10 = alloca i32, align 4
  store ptr %0, ptr %5, align 8, !tbaa !60
  store i64 %1, ptr %6, align 8, !tbaa !67
  store ptr %2, ptr %7, align 8, !tbaa !81
  call void @llvm.lifetime.start.p0(i64 8, ptr %8) #7
  %11 = load ptr, ptr %7, align 8, !tbaa !81
  %12 = load i64, ptr %11, align 8, !tbaa !67
  %13 = call ptr @g_date_time_new_from_unix_local(i64 noundef %12)
  store ptr %13, ptr %8, align 8, !tbaa !51
  %14 = load ptr, ptr %8, align 8, !tbaa !51
  %15 = icmp ne ptr %14, null
  br i1 %15, label %16, label %23

16:                                               ; preds = %3
  call void @llvm.lifetime.start.p0(i64 4, ptr %9) #7
  %17 = load ptr, ptr %5, align 8, !tbaa !60
  %18 = load i64, ptr %6, align 8, !tbaa !67
  %19 = load ptr, ptr %8, align 8, !tbaa !51
  %20 = call i32 @dt_datetime_gdatetime_to_exif(ptr noundef %17, i64 noundef %18, ptr noundef %19)
  store i32 %20, ptr %9, align 4, !tbaa !62
  %21 = load ptr, ptr %8, align 8, !tbaa !51
  call void @g_date_time_unref(ptr noundef %21)
  %22 = load i32, ptr %9, align 4, !tbaa !62
  store i32 %22, ptr %4, align 4
  store i32 1, ptr %10, align 4
  call void @llvm.lifetime.end.p0(i64 4, ptr %9) #7
  br label %24

23:                                               ; preds = %3
  store i32 0, ptr %4, align 4
  store i32 1, ptr %10, align 4
  br label %24

24:                                               ; preds = %23, %16
  call void @llvm.lifetime.end.p0(i64 8, ptr %8) #7
  %25 = load i32, ptr %4, align 4
  ret i32 %25
}