; Function Attrs: nounwind uwtable
define range(i32 0, 2) i32 @dt_datetime_unix_to_exif(ptr noundef %0, i64 noundef %1, ptr noundef readonly captures(none) %2) local_unnamed_addr #0 {
  %4 = load i64, ptr %2, align 8, !tbaa !71
  %5 = tail call ptr @g_date_time_new_from_unix_local(i64 noundef %4) #7
  %.not = icmp eq ptr %5, null
  br i1 %.not, label %8, label %6

6:                                                ; preds = %3
  %7 = tail call i32 @dt_datetime_gdatetime_to_exif(ptr noundef %0, i64 noundef %1, ptr noundef nonnull %5)
  tail call void @g_date_time_unref(ptr noundef nonnull %5) #7
  br label %8

8:                                                ; preds = %3, %6
  %.0 = phi i32 [ %7, %6 ], [ 0, %3 ]
  ret i32 %.0
}